; Function Attrs: mustprogress nounwind uwtable
define hidden void @_ZN15G1ServiceThread11run_serviceEv(ptr noundef nonnull align 8 dereferenceable(1064) %0) unnamed_addr #3 align 2 {
  %2 = tail call noundef ptr @_ZN15G1ServiceThread13wait_for_taskEv(ptr noundef nonnull align 8 dereferenceable(1064) %0)
  %3 = icmp eq ptr %2, null
  br i1 %3, label %._crit_edge, label %.lr.ph

.lr.ph:                                           ; preds = %1, %.lr.ph
  %4 = phi ptr [ %5, %.lr.ph ], [ %2, %1 ]
  tail call void @_ZN15G1ServiceThread8run_taskEP13G1ServiceTask(ptr noundef nonnull align 8 dereferenceable(1064) %0, ptr noundef nonnull %4)
  %5 = tail call noundef ptr @_ZN15G1ServiceThread13wait_for_taskEv(ptr noundef nonnull align 8 dereferenceable(1064) %0)
  %6 = icmp eq ptr %5, null
  br i1 %6, label %._crit_edge, label %.lr.ph, !llvm.loop !9

._crit_edge:                                      ; preds = %.lr.ph, %1
  %7 = load volatile ptr, ptr getelementptr inbounds (i8, ptr @_ZN16LogTagSetMappingILN6LogTag4typeE49ELS1_158ELS1_0ELS1_0ELS1_0ELS1_0EE7_tagsetE, i64 56), align 8
  %.not = icmp eq ptr %7, null
  br i1 %.not, label %9, label %8

8:                                                ; preds = %._crit_edge
  tail call void (ptr, ...) @_ZN7LogImplILN6LogTag4typeE49ELS1_158ELS1_0ELS1_0ELS1_0ELS1_0EE5writeILN8LogLevel4typeE2EEEvPKcz(ptr noundef nonnull @.str.22)
  br label %9

9:                                                ; preds = %._crit_edge, %8
  ret void
}